target datalayout = "e-m:e-p270:32:32-p271:32:32-p272:64:64-i64:64-i128:128-f80:128-n8:16:32:64-S128"
target triple = "x86_64-pc-linux-gnu"

%struct._gpa_hfinfo_t = type { i32, i32, ptr }

@gpa_hfinfo = internal global %struct._gpa_hfinfo_t zeroinitializer, align 8
@wireshark_abort_on_dissector_bug = external global i8, align 1
@.str = private unnamed_addr constant [5 x i8] c"Epan\00", align 1
@.str.1 = private unnamed_addr constant [13 x i8] c"epan/proto.c\00", align 1
@.str.2 = private unnamed_addr constant [26 x i8] c"Unregistered hf! index=%d\00", align 1
@.str.3 = private unnamed_addr constant [34 x i8] c"%s:%u: failed assertion \22%s\22 (%s)\00", align 1
@.str.5 = private unnamed_addr constant [17 x i8] c"Unregistered hf!\00", align 1
@__func__.proto_registrar_get_nth = private unnamed_addr constant [24 x i8] c"proto_registrar_get_nth\00", align 1
@.str.7 = private unnamed_addr constant [50 x i8] c"hfindex > 0 && (unsigned)hfindex < gpa_hfinfo.len\00", align 1
@.str.8 = private unnamed_addr constant [38 x i8] c"gpa_hfinfo.hfi[hfindex] != ((void*)0)\00", align 1

; Function Attrs: null_pointer_is_valid sspstrong uwtable
define ptr @proto_registrar_get_nth(i32 noundef %0) #0 {
  %2 = alloca i32, align 4
  %3 = alloca ptr, align 8
  store i32 %0, ptr %2, align 4
  call void @llvm.lifetime.start.p0(i64 8, ptr %3) #24
  %4 = load i32, ptr %2, align 4
  %5 = icmp eq i32 %4, 0
  br i1 %5, label %10, label %6

6:                                                ; preds = %1
  %7 = load i32, ptr %2, align 4
  %8 = load i32, ptr @gpa_hfinfo, align 8
  %9 = icmp ugt i32 %7, %8
  br i1 %9, label %10, label %15

10:                                               ; preds = %6, %1
  %11 = load i8, ptr @wireshark_abort_on_dissector_bug, align 1, !range !10, !noundef !11
  %12 = trunc i8 %11 to i1
  br i1 %12, label %13, label %15

13:                                               ; preds = %10
  %14 = load i32, ptr %2, align 4
  call void (ptr, i32, ptr, i64, ptr, ptr, ...) @ws_log_fatal_full(ptr noundef @.str, i32 noundef 7, ptr noundef @.str.1, i64 noundef 958, ptr noundef @__func__.proto_registrar_get_nth, ptr noundef @.str.2, i32 noundef %14) #27
  unreachable

15:                                               ; preds = %10, %6
  %16 = load i32, ptr %2, align 4
  %17 = icmp ugt i32 %16, 0
  br i1 %17, label %18, label %23

18:                                               ; preds = %15
  %19 = load i32, ptr %2, align 4
  %20 = load i32, ptr @gpa_hfinfo, align 8
  %21 = icmp ult i32 %19, %20
  br i1 %21, label %22, label %23

22:                                               ; preds = %18
  br label %25

23:                                               ; preds = %18, %15
  call void (ptr, ...) @proto_report_dissector_bug(ptr noundef @.str.3, ptr noundef @.str.1, i32 noundef 958, ptr noundef @.str.7, ptr noundef @.str.5) #27
  unreachable

24:                                               ; No predecessors!
  br label %25

25:                                               ; preds = %24, %22
  %26 = load ptr, ptr getelementptr inbounds nuw (%struct._gpa_hfinfo_t, ptr @gpa_hfinfo, i32 0, i32 2), align 8
  %27 = load i32, ptr %2, align 4
  %28 = zext i32 %27 to i64
  %29 = getelementptr ptr, ptr %26, i64 %28
  %30 = load ptr, ptr %29, align 8
  %31 = icmp ne ptr %30, null
  br i1 %31, label %32, label %33

32:                                               ; preds = %25
  br label %35

33:                                               ; preds = %25
  call void (ptr, ...) @proto_report_dissector_bug(ptr noundef @.str.3, ptr noundef @.str.1, i32 noundef 958, ptr noundef @.str.8, ptr noundef @.str.5) #27
  unreachable

34:                                               ; No predecessors!
  br label %35

35:                                               ; preds = %34, %32
  %36 = load ptr, ptr getelementptr inbounds nuw (%struct._gpa_hfinfo_t, ptr @gpa_hfinfo, i32 0, i32 2), align 8
  %37 = load i32, ptr %2, align 4
  %38 = zext i32 %37 to i64
  %39 = getelementptr ptr, ptr %36, i64 %38
  %40 = load ptr, ptr %39, align 8
  store ptr %40, ptr %3, align 8
  %41 = load ptr, ptr %3, align 8
  call void @llvm.lifetime.end.p0(i64 8, ptr %3) #24
  ret ptr %41
}