; Function Attrs: null_pointer_is_valid sspstrong uwtable
define nonnull ptr @proto_registrar_get_nth(i32 noundef %0) local_unnamed_addr #0 {
  %2 = load i32, ptr @gpa_hfinfo.0, align 8
  %3 = freeze i32 %2
  %4 = add i32 %0, -1
  %or.cond.not = icmp ult i32 %4, %3
  br i1 %or.cond.not, label %9, label %5

5:                                                ; preds = %1
  %6 = load i8, ptr @wireshark_abort_on_dissector_bug, align 1, !range !10, !noundef !11
  %7 = trunc nuw i8 %6 to i1
  br i1 %7, label %8, label %9

8:                                                ; preds = %5
  tail call void (ptr, i32, ptr, i64, ptr, ptr, ...) @ws_log_fatal_full(ptr noundef nonnull @.str, i32 noundef 7, ptr noundef nonnull @.str.1, i64 noundef 958, ptr noundef nonnull @__func__.proto_registrar_get_nth, ptr noundef nonnull @.str.2, i32 noundef %0) #37
  unreachable

9:                                                ; preds = %1, %5
  %.not = icmp ne i32 %0, 0
  %10 = icmp ult i32 %0, %3
  %or.cond11 = and i1 %.not, %10
  br i1 %or.cond11, label %12, label %11

11:                                               ; preds = %9
  tail call void (ptr, ...) @proto_report_dissector_bug(ptr noundef nonnull @.str.3, ptr noundef nonnull @.str.1, i32 noundef 958, ptr noundef nonnull @.str.7, ptr noundef nonnull @.str.5) #37
  unreachable

12:                                               ; preds = %9
  %13 = load ptr, ptr @gpa_hfinfo.2, align 8
  %14 = zext i32 %0 to i64
  %15 = getelementptr ptr, ptr %13, i64 %14
  %16 = load ptr, ptr %15, align 8
  %.not8 = icmp eq ptr %16, null
  br i1 %.not8, label %17, label %18

17:                                               ; preds = %12
  tail call void (ptr, ...) @proto_report_dissector_bug(ptr noundef nonnull @.str.3, ptr noundef nonnull @.str.1, i32 noundef 958, ptr noundef nonnull @.str.8, ptr noundef nonnull @.str.5) #37
  unreachable

18:                                               ; preds = %12
  ret ptr %16
}